; Function Attrs: nounwind uwtable
define internal noundef i32 @png_image_read_composite(ptr nocapture noundef readonly %0) #0 {
  %2 = load ptr, ptr %0, align 8
  %3 = load ptr, ptr %2, align 8
  %4 = load ptr, ptr %3, align 8
  %5 = getelementptr inbounds i8, ptr %4, i64 612
  %6 = load i8, ptr %5, align 4
  switch i8 %6, label %8 [
    i8 0, label %9
    i8 1, label %7
  ]

7:                                                ; preds = %1
  br label %9

8:                                                ; preds = %1
  tail call void @png_error(ptr noundef nonnull %4, ptr noundef nonnull @.str.52) #12
  unreachable

9:                                                ; preds = %1, %7
  %.072 = phi i32 [ 7, %7 ], [ 1, %1 ]
  %10 = getelementptr inbounds i8, ptr %2, i64 16
  %11 = load i32, ptr %10, align 8
  %12 = getelementptr inbounds i8, ptr %2, i64 12
  %13 = load i32, ptr %12, align 4
  %14 = getelementptr inbounds i8, ptr %0, i64 56
  %15 = load i64, ptr %14, align 8
  %16 = getelementptr inbounds i8, ptr %2, i64 20
  %17 = load i32, ptr %16, align 4
  %18 = and i32 %17, 2
  %19 = or disjoint i32 %18, 1
  %20 = getelementptr inbounds i8, ptr %0, i64 40
  %21 = getelementptr inbounds i8, ptr %0, i64 48
  %22 = mul i32 %19, %13
  %23 = zext i32 %22 to i64
  %24 = zext nneg i32 %19 to i64
  %25 = add nuw nsw i32 %18, 2
  %26 = zext nneg i32 %25 to i64
  %27 = or disjoint i32 %18, 1
  %wide.trip.count = zext nneg i32 %27 to i64
  %wide.trip.count99 = zext nneg i32 %27 to i64
  br label %28

28:                                               ; preds = %9, %.loopexit83
  %.07392 = phi i32 [ 0, %9 ], [ %111, %.loopexit83 ]
  %29 = load i8, ptr %5, align 4
  %30 = icmp eq i8 %29, 1
  br i1 %30, label %31, label %60

31:                                               ; preds = %28
  %32 = icmp ugt i32 %.07392, 1
  %33 = sub nuw nsw i32 7, %.07392
  %34 = lshr i32 %33, 1
  %35 = select i1 %32, i32 %34, i32 3
  %notmask = shl nsw i32 -1, %35
  %36 = xor i32 %notmask, -1
  %37 = and i32 %.07392, 1
  %38 = add nuw nsw i32 %.07392, 1
  %39 = lshr i32 %38, 1
  %40 = sub nsw i32 3, %39
  %41 = shl nuw nsw i32 %37, %40
  %42 = and i32 %41, 7
  %43 = add i32 %13, %36
  %44 = sub i32 %43, %42
  %45 = lshr i32 %44, %35
  %46 = icmp eq i32 %45, 0
  br i1 %46, label %.loopexit83, label %47

47:                                               ; preds = %31
  %48 = mul nuw nsw i32 %42, %19
  %49 = shl nuw nsw i32 %19, %34
  %50 = xor i32 %37, 1
  %51 = lshr i32 %.07392, 1
  %52 = sub nsw i32 3, %51
  %53 = shl nuw nsw i32 %50, %52
  %54 = and i32 %53, 7
  %55 = icmp ugt i32 %.07392, 2
  %56 = add nsw i32 %.07392, -1
  %57 = ashr i32 %56, 1
  %58 = lshr i32 8, %57
  %59 = select i1 %55, i32 %58, i32 8
  br label %60

60:                                               ; preds = %28, %47
  %.079 = phi i32 [ %48, %47 ], [ 0, %28 ]
  %.078 = phi i32 [ %49, %47 ], [ %19, %28 ]
  %.077 = phi i32 [ %59, %47 ], [ 1, %28 ]
  %.076 = phi i32 [ %54, %47 ], [ 0, %28 ]
  %61 = icmp ult i32 %.076, %11
  br i1 %61, label %.lr.ph91, label %.loopexit83

.lr.ph91:                                         ; preds = %60
  %62 = zext nneg i32 %.079 to i64
  %63 = zext nneg i32 %.078 to i64
  %64 = icmp ult i32 %.079, %22
  br label %65

65:                                               ; preds = %.lr.ph91, %._crit_edge
  %.189 = phi i32 [ %.076, %.lr.ph91 ], [ %109, %._crit_edge ]
  %66 = load ptr, ptr %20, align 8
  tail call void @png_read_row(ptr noundef %4, ptr noundef %66, ptr noundef null)
  %67 = load ptr, ptr %21, align 8
  %68 = zext i32 %.189 to i64
  %69 = mul nsw i64 %15, %68
  %70 = getelementptr i8, ptr %67, i64 %69
  %71 = getelementptr inbounds i8, ptr %70, i64 %23
  br i1 %64, label %.lr.ph.preheader, label %._crit_edge

.lr.ph.preheader:                                 ; preds = %65
  %72 = getelementptr i8, ptr %70, i64 %62
  br label %.lr.ph

.lr.ph:                                           ; preds = %.lr.ph.preheader, %.loopexit
  %.07487 = phi ptr [ %107, %.loopexit ], [ %72, %.lr.ph.preheader ]
  %.07585 = phi ptr [ %106, %.loopexit ], [ %66, %.lr.ph.preheader ]
  %73 = getelementptr inbounds i8, ptr %.07585, i64 %24
  %74 = load i8, ptr %73, align 1
  %.not = icmp eq i8 %74, 0
  br i1 %.not, label %.loopexit, label %.preheader

.preheader:                                       ; preds = %.lr.ph
  %.not82 = icmp eq i8 %74, -1
  %75 = xor i8 %74, -1
  %76 = zext i8 %75 to i32
  br i1 %.not82, label %.preheader.split.us, label %.preheader.split

.preheader.split.us:                              ; preds = %.preheader, %.preheader.split.us
  %indvars.iv96 = phi i64 [ %indvars.iv.next97, %.preheader.split.us ], [ 0, %.preheader ]
  %77 = getelementptr inbounds i8, ptr %.07585, i64 %indvars.iv96
  %78 = load i8, ptr %77, align 1
  %79 = getelementptr inbounds i8, ptr %.07487, i64 %indvars.iv96
  store i8 %78, ptr %79, align 1
  %indvars.iv.next97 = add nuw nsw i64 %indvars.iv96, 1
  %exitcond100.not = icmp eq i64 %indvars.iv.next97, %wide.trip.count99
  br i1 %exitcond100.not, label %.loopexit, label %.preheader.split.us, !llvm.loop !72

.preheader.split:                                 ; preds = %.preheader, %.preheader.split
  %indvars.iv = phi i64 [ %indvars.iv.next, %.preheader.split ], [ 0, %.preheader ]
  %80 = getelementptr inbounds i8, ptr %.07585, i64 %indvars.iv
  %81 = load i8, ptr %80, align 1
  %82 = zext i8 %81 to i32
  %83 = mul nuw nsw i32 %82, 65535
  %84 = getelementptr inbounds i8, ptr %.07487, i64 %indvars.iv
  %85 = load i8, ptr %84, align 1
  %86 = zext i8 %85 to i64
  %87 = getelementptr inbounds [256 x i16], ptr @png_sRGB_table, i64 0, i64 %86
  %88 = load i16, ptr %87, align 2
  %89 = zext i16 %88 to i32
  %90 = mul nuw nsw i32 %89, %76
  %91 = add nuw nsw i32 %90, %83
  %92 = lshr i32 %91, 15
  %93 = zext nneg i32 %92 to i64
  %94 = getelementptr inbounds [512 x i16], ptr @png_sRGB_base, i64 0, i64 %93
  %95 = load i16, ptr %94, align 2
  %96 = zext i16 %95 to i32
  %97 = and i32 %91, 32767
  %98 = getelementptr inbounds [512 x i8], ptr @png_sRGB_delta, i64 0, i64 %93
  %99 = load i8, ptr %98, align 1
  %100 = zext i8 %99 to i32
  %101 = mul nuw nsw i32 %97, %100
  %102 = lshr i32 %101, 12
  %103 = add nuw nsw i32 %102, %96
  %104 = lshr i32 %103, 8
  %105 = trunc i32 %104 to i8
  store i8 %105, ptr %84, align 1
  %indvars.iv.next = add nuw nsw i64 %indvars.iv, 1
  %exitcond.not = icmp eq i64 %indvars.iv.next, %wide.trip.count
  br i1 %exitcond.not, label %.loopexit, label %.preheader.split, !llvm.loop !72

.loopexit:                                        ; preds = %.preheader.split, %.preheader.split.us, %.lr.ph
  %106 = getelementptr inbounds i8, ptr %.07585, i64 %26
  %107 = getelementptr inbounds i8, ptr %.07487, i64 %63
  %108 = icmp ult ptr %107, %71
  br i1 %108, label %.lr.ph, label %._crit_edge, !llvm.loop !73

._crit_edge:                                      ; preds = %.loopexit, %65
  %109 = add i32 %.189, %.077
  %110 = icmp ult i32 %109, %11
  br i1 %110, label %65, label %.loopexit83, !llvm.loop !74

.loopexit83:                                      ; preds = %._crit_edge, %60, %31
  %111 = add nuw nsw i32 %.07392, 1
  %exitcond101.not = icmp eq i32 %111, %.072
  br i1 %exitcond101.not, label %112, label %28, !llvm.loop !75

112:                                              ; preds = %.loopexit83
  ret i32 1
}